; Function Attrs: nofree norecurse nosync nounwind memory(argmem: readwrite) uwtable
define internal void @avg_rv30_tpel8_mc22_c(ptr noundef captures(none) %0, ptr noundef readonly captures(none) %1, i64 noundef %2) #3 {
  %4 = trunc i64 %2 to i32
  %5 = shl nsw i32 %4, 1
  %sext = shl i64 %2, 32
  %6 = ashr exact i64 %sext, 32
  %7 = sext i32 %5 to i64
  br label %.preheader.i

.preheader.i:                                     ; preds = %50, %3
  %.049.i = phi i32 [ 0, %3 ], [ %52, %50 ]
  %.04048.i = phi ptr [ %0, %3 ], [ %51, %50 ]
  %.04147.i = phi ptr [ %1, %3 ], [ %invariant.gep.i, %50 ]
  %invariant.gep.i = getelementptr i8, ptr %.04147.i, i64 %6
  %invariant.gep56.i = getelementptr i8, ptr %.04147.i, i64 %7
  br label %8

8:                                                ; preds = %8, %.preheader.i
  %indvars.iv.i = phi i64 [ 0, %.preheader.i ], [ %indvars.iv.next.i, %8 ]
  %9 = getelementptr inbounds nuw i8, ptr %.04048.i, i64 %indvars.iv.i
  %10 = load i8, ptr %9, align 1, !tbaa !8
  %11 = zext i8 %10 to i16
  %12 = getelementptr inbounds nuw i8, ptr %.04147.i, i64 %indvars.iv.i
  %13 = load i8, ptr %12, align 1, !tbaa !8
  %14 = zext i8 %13 to i64
  %15 = mul nuw nsw i64 %14, 36
  %indvars.iv.next.i = add nuw nsw i64 %indvars.iv.i, 1
  %16 = getelementptr inbounds nuw i8, ptr %.04147.i, i64 %indvars.iv.next.i
  %17 = load i8, ptr %16, align 1, !tbaa !8
  %18 = zext i8 %17 to i64
  %19 = add nuw nsw i64 %indvars.iv.i, 2
  %20 = getelementptr inbounds nuw i8, ptr %.04147.i, i64 %19
  %21 = load i8, ptr %20, align 1, !tbaa !8
  %22 = zext i8 %21 to i64
  %gep.i = getelementptr i8, ptr %invariant.gep.i, i64 %indvars.iv.i
  %23 = load i8, ptr %gep.i, align 1, !tbaa !8
  %24 = zext i8 %23 to i64
  %gep53.i = getelementptr i8, ptr %invariant.gep.i, i64 %indvars.iv.next.i
  %25 = load i8, ptr %gep53.i, align 1, !tbaa !8
  %26 = zext i8 %25 to i64
  %27 = mul nuw nsw i64 %26, 81
  %gep55.i = getelementptr i8, ptr %invariant.gep.i, i64 %19
  %28 = load i8, ptr %gep55.i, align 1, !tbaa !8
  %29 = zext i8 %28 to i64
  %gep57.i = getelementptr i8, ptr %invariant.gep56.i, i64 %indvars.iv.i
  %30 = load i8, ptr %gep57.i, align 1, !tbaa !8
  %31 = zext i8 %30 to i64
  %gep59.i = getelementptr i8, ptr %invariant.gep56.i, i64 %indvars.iv.next.i
  %32 = load i8, ptr %gep59.i, align 1, !tbaa !8
  %33 = zext i8 %32 to i64
  %gep61.i = getelementptr i8, ptr %invariant.gep56.i, i64 %19
  %34 = load i8, ptr %gep61.i, align 1, !tbaa !8
  %35 = zext i8 %34 to i64
  %reass.add.i = add nuw nsw i64 %33, %29
  %reass.mul.i = mul nuw nsw i64 %reass.add.i, 9
  %reass.add42.i = add nuw nsw i64 %31, %22
  %reass.mul43.i = mul nuw nsw i64 %reass.add42.i, 6
  %reass.add44.i = add nuw nsw i64 %24, %18
  %reass.mul45.i = mul nuw nsw i64 %reass.add44.i, 54
  %36 = add nuw nsw i64 %15, 128
  %37 = add nuw nsw i64 %36, %27
  %38 = add nuw nsw i64 %37, %reass.mul45.i
  %39 = add nuw nsw i64 %38, %35
  %40 = add nuw nsw i64 %39, %reass.mul43.i
  %41 = add nuw nsw i64 %40, %reass.mul.i
  %42 = lshr i64 %41, 8
  %43 = getelementptr inbounds nuw i8, ptr getelementptr inbounds nuw (i8, ptr @ff_crop_tab, i64 1024), i64 %42
  %44 = load i8, ptr %43, align 1, !tbaa !8
  %45 = zext i8 %44 to i16
  %46 = add nuw nsw i16 %11, 1
  %47 = add nuw nsw i16 %46, %45
  %48 = lshr i16 %47, 1
  %49 = trunc nuw i16 %48 to i8
  store i8 %49, ptr %9, align 1, !tbaa !8
  %exitcond.not.i = icmp eq i64 %indvars.iv.next.i, 8
  br i1 %exitcond.not.i, label %50, label %8, !llvm.loop !24

50:                                               ; preds = %8
  %51 = getelementptr inbounds i8, ptr %.04048.i, i64 %6
  %52 = add nuw nsw i32 %.049.i, 1
  %exitcond51.not.i = icmp eq i32 %52, 8
  br i1 %exitcond51.not.i, label %avg_rv30_tpel8_hhvv_lowpass.exit, label %.preheader.i, !llvm.loop !25

avg_rv30_tpel8_hhvv_lowpass.exit:                 ; preds = %50
  ret void
}